; Function Attrs: nounwind uwtable
define dso_local void @chdir_notify_register(ptr noundef %0, ptr noundef %1, ptr noundef %2) local_unnamed_addr #0 {
  %4 = tail call ptr @xmalloc(i64 noundef 40) #7
  store ptr %0, ptr %4, align 8, !tbaa !4
  %5 = getelementptr inbounds nuw i8, ptr %4, i64 8
  store ptr %1, ptr %5, align 8, !tbaa !12
  %6 = getelementptr inbounds nuw i8, ptr %4, i64 16
  store ptr %2, ptr %6, align 8, !tbaa !13
  %7 = getelementptr inbounds nuw i8, ptr %4, i64 24
  %8 = load ptr, ptr getelementptr inbounds nuw (i8, ptr @chdir_notify_entries, i64 8), align 8, !tbaa !14
  store ptr %7, ptr %8, align 8, !tbaa !15
  store ptr @chdir_notify_entries, ptr %7, align 8, !tbaa !15
  %9 = getelementptr inbounds nuw i8, ptr %4, i64 32
  store ptr %8, ptr %9, align 8, !tbaa !14
  store ptr %7, ptr getelementptr inbounds nuw (i8, ptr @chdir_notify_entries, i64 8), align 8, !tbaa !14
  ret void
}